; Function Attrs: nounwind sspstrong uwtable
define internal noundef i64 @take_while_i(i64 %0, i64 noundef %1, i32 noundef %2, ptr noundef %3, i64 %4) #0 {
  %6 = tail call i64 @rb_yield_values2(i32 noundef %2, ptr noundef %3) #14
  %7 = and i64 %6, -5
  %.not = icmp eq i64 %7, 0
  br i1 %.not, label %8, label %9

8:                                                ; preds = %5
  tail call void @rb_iter_break() #15
  unreachable

9:                                                ; preds = %5
  switch i32 %2, label %12 [
    i32 0, label %rb_enum_values_pack.exit
    i32 1, label %10
  ]

10:                                               ; preds = %9
  %11 = load i64, ptr %3, align 8, !tbaa !7
  br label %rb_enum_values_pack.exit

12:                                               ; preds = %9
  %13 = sext i32 %2 to i64
  %14 = tail call i64 @rb_ary_new_from_values(i64 noundef %13, ptr noundef %3) #14
  br label %rb_enum_values_pack.exit

rb_enum_values_pack.exit:                         ; preds = %9, %10, %12
  %.0.i = phi i64 [ %11, %10 ], [ %14, %12 ], [ 4, %9 ]
  %15 = tail call i64 @rb_ary_push(i64 noundef %1, i64 noundef %.0.i) #14
  ret i64 4
}